; Function Attrs: mustprogress nounwind uwtable
define internal noundef i64 @_ZNK5faiss12_GLOBAL__N_118IVFBinaryScannerL2INS_22HammingComputerDefaultEE10scan_codesEmPKhPKlPiPlm(ptr noundef nonnull align 8 dereferenceable(48) %0, i64 noundef %1, ptr noalias noundef %2, ptr noalias nocapture noundef readonly %3, ptr noalias nocapture noundef %4, ptr noalias nocapture noundef %5, i64 noundef %6) unnamed_addr #0 align 2 {
  %.not24 = icmp eq i64 %1, 0
  br i1 %.not24, label %._crit_edge, label %.lr.ph

.lr.ph:                                           ; preds = %7
  %8 = getelementptr inbounds i8, ptr %0, i64 8
  %9 = getelementptr inbounds i8, ptr %0, i64 32
  %10 = getelementptr inbounds i8, ptr %0, i64 40
  %11 = getelementptr inbounds i8, ptr %4, i64 -4
  %12 = getelementptr inbounds i8, ptr %5, i64 -8
  %13 = icmp ult i64 %6, 2
  %.phi.trans.insert.i = getelementptr inbounds i32, ptr %11, i64 %6
  %14 = getelementptr inbounds i8, ptr %0, i64 24
  br i1 %13, label %.lr.ph.split.us, label %.lr.ph.split

.lr.ph.split.us:                                  ; preds = %.lr.ph, %30
  %.023.us = phi ptr [ %32, %30 ], [ %2, %.lr.ph ]
  %.01722.us = phi i64 [ %.1.us, %30 ], [ 0, %.lr.ph ]
  %.01820.us = phi i64 [ %33, %30 ], [ 0, %.lr.ph ]
  %15 = tail call noundef i32 @_ZNK5faiss22HammingComputerDefault7hammingEPKh(ptr noundef nonnull align 8 dereferenceable(16) %8, ptr noundef %.023.us)
  %16 = load i32, ptr %4, align 4
  %17 = icmp ult i32 %15, %16
  br i1 %17, label %18, label %30

18:                                               ; preds = %.lr.ph.split.us
  %19 = load i8, ptr %9, align 8
  %20 = and i8 %19, 1
  %.not.us = icmp eq i8 %20, 0
  br i1 %.not.us, label %25, label %21

21:                                               ; preds = %18
  %22 = load i64, ptr %10, align 8
  %23 = shl i64 %22, 32
  %24 = or i64 %23, %.01820.us
  br label %_ZN5faiss16heap_replace_topINS_4CMaxIilEEEEvmPNT_1TEPNS3_2TIES4_S6_.exit.us

25:                                               ; preds = %18
  %26 = getelementptr inbounds i64, ptr %3, i64 %.01820.us
  %27 = load i64, ptr %26, align 8
  br label %_ZN5faiss16heap_replace_topINS_4CMaxIilEEEEvmPNT_1TEPNS3_2TIES4_S6_.exit.us

_ZN5faiss16heap_replace_topINS_4CMaxIilEEEEvmPNT_1TEPNS3_2TIES4_S6_.exit.us: ; preds = %25, %21
  %28 = phi i64 [ %24, %21 ], [ %27, %25 ]
  store i32 %15, ptr %4, align 4
  store i64 %28, ptr %5, align 8
  %29 = add i64 %.01722.us, 1
  br label %30

30:                                               ; preds = %_ZN5faiss16heap_replace_topINS_4CMaxIilEEEEvmPNT_1TEPNS3_2TIES4_S6_.exit.us, %.lr.ph.split.us
  %.1.us = phi i64 [ %29, %_ZN5faiss16heap_replace_topINS_4CMaxIilEEEEvmPNT_1TEPNS3_2TIES4_S6_.exit.us ], [ %.01722.us, %.lr.ph.split.us ]
  %31 = load i64, ptr %14, align 8
  %32 = getelementptr inbounds i8, ptr %.023.us, i64 %31
  %33 = add nuw i64 %.01820.us, 1
  %exitcond26.not = icmp eq i64 %33, %1
  br i1 %exitcond26.not, label %._crit_edge, label %.lr.ph.split.us, !llvm.loop !221

.lr.ph.split:                                     ; preds = %.lr.ph, %86
  %.023 = phi ptr [ %88, %86 ], [ %2, %.lr.ph ]
  %.01722 = phi i64 [ %.1, %86 ], [ 0, %.lr.ph ]
  %.01820 = phi i64 [ %89, %86 ], [ 0, %.lr.ph ]
  %34 = tail call noundef i32 @_ZNK5faiss22HammingComputerDefault7hammingEPKh(ptr noundef nonnull align 8 dereferenceable(16) %8, ptr noundef %.023)
  %35 = load i32, ptr %4, align 4
  %36 = icmp ult i32 %34, %35
  br i1 %36, label %37, label %86

37:                                               ; preds = %.lr.ph.split
  %38 = load i8, ptr %9, align 8
  %39 = and i8 %38, 1
  %.not = icmp eq i8 %39, 0
  br i1 %.not, label %44, label %40

40:                                               ; preds = %37
  %41 = load i64, ptr %10, align 8
  %42 = shl i64 %41, 32
  %43 = or i64 %42, %.01820
  br label %.lr.ph.preheader.i

44:                                               ; preds = %37
  %45 = getelementptr inbounds i64, ptr %3, i64 %.01820
  %46 = load i64, ptr %45, align 8
  br label %.lr.ph.preheader.i

.lr.ph.preheader.i:                               ; preds = %44, %40
  %47 = phi i64 [ %43, %40 ], [ %46, %44 ]
  br label %.lr.ph.i

.lr.ph.i:                                         ; preds = %76, %.lr.ph.preheader.i
  %48 = phi i64 [ %81, %76 ], [ 3, %.lr.ph.preheader.i ]
  %49 = phi i64 [ %80, %76 ], [ 2, %.lr.ph.preheader.i ]
  %.056.i = phi i64 [ %.1.i, %76 ], [ 1, %.lr.ph.preheader.i ]
  %50 = icmp eq i64 %49, %6
  br i1 %50, label %.lr.ph._ZN5faiss4CMaxIilE4cmp2Eiill.exit.thread_crit_edge.i, label %51

.lr.ph._ZN5faiss4CMaxIilE4cmp2Eiill.exit.thread_crit_edge.i: ; preds = %.lr.ph.i
  %.pre.i = load i32, ptr %.phi.trans.insert.i, align 4
  br label %_ZN5faiss4CMaxIilE4cmp2Eiill.exit.thread.i

51:                                               ; preds = %.lr.ph.i
  %52 = getelementptr inbounds i32, ptr %11, i64 %49
  %53 = load i32, ptr %52, align 4
  %54 = getelementptr inbounds i32, ptr %11, i64 %48
  %55 = load i32, ptr %54, align 4
  %56 = getelementptr inbounds i64, ptr %12, i64 %48
  %57 = load i64, ptr %56, align 8
  %58 = icmp sgt i32 %53, %55
  br i1 %58, label %_ZN5faiss4CMaxIilE4cmp2Eiill.exit.thread.i, label %_ZN5faiss4CMaxIilE4cmp2Eiill.exit.i

_ZN5faiss4CMaxIilE4cmp2Eiill.exit.i:              ; preds = %51
  %59 = getelementptr inbounds i64, ptr %12, i64 %49
  %60 = load i64, ptr %59, align 8
  %61 = icmp eq i32 %53, %55
  %62 = icmp sgt i64 %60, %57
  %63 = and i1 %61, %62
  br i1 %63, label %_ZN5faiss4CMaxIilE4cmp2Eiill.exit.thread.i, label %71

_ZN5faiss4CMaxIilE4cmp2Eiill.exit.thread.i:       ; preds = %_ZN5faiss4CMaxIilE4cmp2Eiill.exit.i, %51, %.lr.ph._ZN5faiss4CMaxIilE4cmp2Eiill.exit.thread_crit_edge.i
  %64 = phi i32 [ %.pre.i, %.lr.ph._ZN5faiss4CMaxIilE4cmp2Eiill.exit.thread_crit_edge.i ], [ %53, %51 ], [ %53, %_ZN5faiss4CMaxIilE4cmp2Eiill.exit.i ]
  %65 = icmp slt i32 %64, %34
  br i1 %65, label %_ZN5faiss16heap_replace_topINS_4CMaxIilEEEEvmPNT_1TEPNS3_2TIES4_S6_.exit.loopexit, label %_ZN5faiss4CMaxIilE4cmp2Eiill.exit54.i

_ZN5faiss4CMaxIilE4cmp2Eiill.exit54.i:            ; preds = %_ZN5faiss4CMaxIilE4cmp2Eiill.exit.thread.i
  %66 = getelementptr inbounds i64, ptr %12, i64 %49
  %67 = load i64, ptr %66, align 8
  %68 = icmp eq i32 %64, %34
  %69 = icmp slt i64 %67, %47
  %70 = and i1 %68, %69
  br i1 %70, label %_ZN5faiss16heap_replace_topINS_4CMaxIilEEEEvmPNT_1TEPNS3_2TIES4_S6_.exit.loopexit, label %76

71:                                               ; preds = %_ZN5faiss4CMaxIilE4cmp2Eiill.exit.i
  %72 = icmp slt i32 %55, %34
  br i1 %72, label %_ZN5faiss16heap_replace_topINS_4CMaxIilEEEEvmPNT_1TEPNS3_2TIES4_S6_.exit.loopexit, label %_ZN5faiss4CMaxIilE4cmp2Eiill.exit55.i

_ZN5faiss4CMaxIilE4cmp2Eiill.exit55.i:            ; preds = %71
  %73 = icmp eq i32 %55, %34
  %74 = icmp slt i64 %57, %47
  %75 = and i1 %73, %74
  br i1 %75, label %_ZN5faiss16heap_replace_topINS_4CMaxIilEEEEvmPNT_1TEPNS3_2TIES4_S6_.exit.loopexit, label %76

76:                                               ; preds = %_ZN5faiss4CMaxIilE4cmp2Eiill.exit55.i, %_ZN5faiss4CMaxIilE4cmp2Eiill.exit54.i
  %77 = phi i64 [ %67, %_ZN5faiss4CMaxIilE4cmp2Eiill.exit54.i ], [ %57, %_ZN5faiss4CMaxIilE4cmp2Eiill.exit55.i ]
  %.sink.i = phi i32 [ %64, %_ZN5faiss4CMaxIilE4cmp2Eiill.exit54.i ], [ %55, %_ZN5faiss4CMaxIilE4cmp2Eiill.exit55.i ]
  %.1.i = phi i64 [ %49, %_ZN5faiss4CMaxIilE4cmp2Eiill.exit54.i ], [ %48, %_ZN5faiss4CMaxIilE4cmp2Eiill.exit55.i ]
  %78 = getelementptr inbounds i32, ptr %11, i64 %.056.i
  store i32 %.sink.i, ptr %78, align 4
  %79 = getelementptr inbounds i64, ptr %12, i64 %.056.i
  store i64 %77, ptr %79, align 8
  %80 = shl i64 %.1.i, 1
  %81 = or disjoint i64 %80, 1
  %82 = icmp ugt i64 %80, %6
  br i1 %82, label %_ZN5faiss16heap_replace_topINS_4CMaxIilEEEEvmPNT_1TEPNS3_2TIES4_S6_.exit.loopexit, label %.lr.ph.i, !llvm.loop !208

_ZN5faiss16heap_replace_topINS_4CMaxIilEEEEvmPNT_1TEPNS3_2TIES4_S6_.exit.loopexit: ; preds = %76, %_ZN5faiss4CMaxIilE4cmp2Eiill.exit55.i, %71, %_ZN5faiss4CMaxIilE4cmp2Eiill.exit54.i, %_ZN5faiss4CMaxIilE4cmp2Eiill.exit.thread.i
  %.0.lcssa.i.ph = phi i64 [ %.1.i, %76 ], [ %.056.i, %_ZN5faiss4CMaxIilE4cmp2Eiill.exit54.i ], [ %.056.i, %_ZN5faiss4CMaxIilE4cmp2Eiill.exit55.i ], [ %.056.i, %_ZN5faiss4CMaxIilE4cmp2Eiill.exit.thread.i ], [ %.056.i, %71 ]
  %83 = getelementptr inbounds i32, ptr %11, i64 %.0.lcssa.i.ph
  store i32 %34, ptr %83, align 4
  %84 = getelementptr inbounds i64, ptr %12, i64 %.0.lcssa.i.ph
  store i64 %47, ptr %84, align 8
  %85 = add i64 %.01722, 1
  br label %86

86:                                               ; preds = %_ZN5faiss16heap_replace_topINS_4CMaxIilEEEEvmPNT_1TEPNS3_2TIES4_S6_.exit.loopexit, %.lr.ph.split
  %.1 = phi i64 [ %85, %_ZN5faiss16heap_replace_topINS_4CMaxIilEEEEvmPNT_1TEPNS3_2TIES4_S6_.exit.loopexit ], [ %.01722, %.lr.ph.split ]
  %87 = load i64, ptr %14, align 8
  %88 = getelementptr inbounds i8, ptr %.023, i64 %87
  %89 = add nuw i64 %.01820, 1
  %exitcond.not = icmp eq i64 %89, %1
  br i1 %exitcond.not, label %._crit_edge, label %.lr.ph.split, !llvm.loop !221

._crit_edge:                                      ; preds = %86, %30, %7
  %.017.lcssa = phi i64 [ 0, %7 ], [ %.1.us, %30 ], [ %.1, %86 ]
  ret i64 %.017.lcssa
}